target datalayout = "e-m:e-p270:32:32-p271:32:32-p272:64:64-i64:64-i128:128-f80:128-n8:16:32:64-S128"
target triple = "x86_64-pc-linux-gnu"

%struct.ident_t = type { i32, i32, i32, i32, ptr }

@2 = private unnamed_addr constant %struct.ident_t { i32 0, i32 2, i32 0, i32 22, ptr @0 }, align 8

; Function Attrs: inlinehint mustprogress uwtable
define internal void @_ZN8LightGBML24Int32HistogramSumReducerEPKcPcii(ptr noundef %0, ptr noundef %1, i32 noundef %2, i32 noundef %3) #2 {
  %5 = alloca ptr, align 8
  %6 = alloca ptr, align 8
  %7 = alloca i32, align 4
  %8 = alloca i32, align 4
  %9 = alloca ptr, align 8
  %10 = alloca ptr, align 8
  %11 = alloca i32, align 4
  %12 = call i32 @__kmpc_global_thread_num(ptr @2)
  store ptr %0, ptr %5, align 8, !tbaa !216
  store ptr %1, ptr %6, align 8, !tbaa !216
  store i32 %2, ptr %7, align 4, !tbaa !149
  store i32 %3, ptr %8, align 4, !tbaa !149
  call void @llvm.lifetime.start.p0(i64 8, ptr %9) #7
  %13 = load ptr, ptr %5, align 8, !tbaa !216
  store ptr %13, ptr %9, align 8, !tbaa !269
  call void @llvm.lifetime.start.p0(i64 8, ptr %10) #7
  %14 = load ptr, ptr %6, align 8, !tbaa !216
  store ptr %14, ptr %10, align 8, !tbaa !269
  call void @llvm.lifetime.start.p0(i64 4, ptr %11) #7
  %15 = load i32, ptr %8, align 4, !tbaa !149
  %16 = load i32, ptr %7, align 4, !tbaa !149
  %17 = mul nsw i32 %16, 2
  %18 = add nsw i32 %15, %17
  %19 = sub nsw i32 %18, 1
  %20 = load i32, ptr %7, align 4, !tbaa !149
  %21 = mul nsw i32 %20, 2
  %22 = sdiv i32 %19, %21
  store i32 %22, ptr %11, align 4, !tbaa !149
  %23 = call i32 @OMP_NUM_THREADS()
  call void @__kmpc_push_num_threads(ptr @2, i32 %12, i32 %23)
  call void (ptr, i32, ptr, ...) @__kmpc_fork_call(ptr @2, i32 3, ptr @_ZN8LightGBML24Int32HistogramSumReducerEPKcPcii.omp_outlined, ptr %11, ptr %10, ptr %9)
  call void @llvm.lifetime.end.p0(i64 4, ptr %11) #7
  call void @llvm.lifetime.end.p0(i64 8, ptr %10) #7
  call void @llvm.lifetime.end.p0(i64 8, ptr %9) #7
  ret void
}