; Function Attrs: inlinehint mustprogress uwtable
define internal void @_ZN8LightGBML24Int32HistogramSumReducerEPKcPcii(ptr noundef %0, ptr noundef %1, i32 noundef %2, i32 noundef %3) #2 {
  %5 = alloca ptr, align 8
  %6 = alloca ptr, align 8
  %7 = alloca i32, align 4
  %8 = tail call i32 @__kmpc_global_thread_num(ptr nonnull @2)
  call void @llvm.lifetime.start.p0(i64 8, ptr nonnull %5) #21
  store ptr %0, ptr %5, align 8, !tbaa !334
  call void @llvm.lifetime.start.p0(i64 8, ptr nonnull %6) #21
  store ptr %1, ptr %6, align 8, !tbaa !334
  call void @llvm.lifetime.start.p0(i64 4, ptr nonnull %7) #21
  %9 = shl nsw i32 %2, 1
  %10 = add i32 %9, -1
  %11 = add i32 %10, %3
  %12 = sdiv i32 %11, %9
  store i32 %12, ptr %7, align 4, !tbaa !209
  %13 = tail call i32 @OMP_NUM_THREADS()
  tail call void @__kmpc_push_num_threads(ptr nonnull @2, i32 %8, i32 %13)
  call void (ptr, i32, ptr, ...) @__kmpc_fork_call(ptr nonnull @2, i32 3, ptr nonnull @_ZN8LightGBML24Int32HistogramSumReducerEPKcPcii.omp_outlined, ptr nonnull %7, ptr nonnull %6, ptr nonnull %5)
  call void @llvm.lifetime.end.p0(i64 4, ptr nonnull %7) #21
  call void @llvm.lifetime.end.p0(i64 8, ptr nonnull %6) #21
  call void @llvm.lifetime.end.p0(i64 8, ptr nonnull %5) #21
  ret void
}